; ModuleID = '39/1816.c'
source_filename = "39/1816.c"
target datalayout = "e-m:e-p270:32:32-p271:32:32-p272:64:64-i64:64-f80:128-n8:16:32:64-S128"
target triple = "x86_64-pc-linux-gnu"

%struct.stud = type { [30 x i8], i32, i32, i8, i8, i32 }

@.str = private unnamed_addr constant [3 x i8] c"%d\00", align 1
@.str.1 = private unnamed_addr constant [17 x i8] c"%s%d %d %c %c %d\00", align 1
@.str.2 = private unnamed_addr constant [9 x i8] c"%s\0A%d\0A%d\00", align 1

; Function Attrs: noinline nounwind uwtable
define dso_local i32 @main() #0 {
  %1 = alloca i32, align 4
  %2 = alloca [100 x %struct.stud], align 16
  %3 = alloca i32, align 4
  %4 = alloca i32, align 4
  %5 = alloca [100 x i32], align 16
  %6 = alloca i32, align 4
  %7 = alloca i32, align 4
  %8 = alloca i32, align 4
  store i32 0, i32* %1, align 4
  store i32 0, i32* %7, align 4
  %9 = call i32 (i8*, ...) @__isoc99_scanf(i8* getelementptr inbounds ([3 x i8], [3 x i8]* @.str, i64 0, i64 0), i32* %3)
  %10 = call i32 @getchar()
  store i32 0, i32* %4, align 4
  br label %11

11:                                               ; preds = %156, %0
  %12 = load i32, i32* %4, align 4
  %13 = load i32, i32* %3, align 4
  %14 = icmp slt i32 %12, %13
  br i1 %14, label %15, label %159

15:                                               ; preds = %11
  %16 = load i32, i32* %4, align 4
  %17 = sext i32 %16 to i64
  %18 = getelementptr inbounds [100 x %struct.stud], [100 x %struct.stud]* %2, i64 0, i64 %17
  %19 = getelementptr inbounds %struct.stud, %struct.stud* %18, i32 0, i32 0
  %20 = getelementptr inbounds [30 x i8], [30 x i8]* %19, i64 0, i64 0
  %21 = load i32, i32* %4, align 4
  %22 = sext i32 %21 to i64
  %23 = getelementptr inbounds [100 x %struct.stud], [100 x %struct.stud]* %2, i64 0, i64 %22
  %24 = getelementptr inbounds %struct.stud, %struct.stud* %23, i32 0, i32 1
  %25 = load i32, i32* %4, align 4
  %26 = sext i32 %25 to i64
  %27 = getelementptr inbounds [100 x %struct.stud], [100 x %struct.stud]* %2, i64 0, i64 %26
  %28 = getelementptr inbounds %struct.stud, %struct.stud* %27, i32 0, i32 2
  %29 = load i32, i32* %4, align 4
  %30 = sext i32 %29 to i64
  %31 = getelementptr inbounds [100 x %struct.stud], [100 x %struct.stud]* %2, i64 0, i64 %30
  %32 = getelementptr inbounds %struct.stud, %struct.stud* %31, i32 0, i32 3
  %33 = load i32, i32* %4, align 4
  %34 = sext i32 %33 to i64
  %35 = getelementptr inbounds [100 x %struct.stud], [100 x %struct.stud]* %2, i64 0, i64 %34
  %36 = getelementptr inbounds %struct.stud, %struct.stud* %35, i32 0, i32 4
  %37 = load i32, i32* %4, align 4
  %38 = sext i32 %37 to i64
  %39 = getelementptr inbounds [100 x %struct.stud], [100 x %struct.stud]* %2, i64 0, i64 %38
  %40 = getelementptr inbounds %struct.stud, %struct.stud* %39, i32 0, i32 5
  %41 = call i32 (i8*, ...) @__isoc99_scanf(i8* getelementptr inbounds ([17 x i8], [17 x i8]* @.str.1, i64 0, i64 0), i8* %20, i32* %24, i32* %28, i8* %32, i8* %36, i32* %40)
  %42 = call i32 @getchar()
  %43 = load i32, i32* %4, align 4
  %44 = sext i32 %43 to i64
  %45 = getelementptr inbounds [100 x i32], [100 x i32]* %5, i64 0, i64 %44
  store i32 0, i32* %45, align 4
  %46 = load i32, i32* %4, align 4
  %47 = sext i32 %46 to i64
  %48 = getelementptr inbounds [100 x %struct.stud], [100 x %struct.stud]* %2, i64 0, i64 %47
  %49 = getelementptr inbounds %struct.stud, %struct.stud* %48, i32 0, i32 1
  %50 = load i32, i32* %49, align 16
  %51 = icmp sgt i32 %50, 80
  br i1 %51, label %52, label %68

52:                                               ; preds = %15
  %53 = load i32, i32* %4, align 4
  %54 = sext i32 %53 to i64
  %55 = getelementptr inbounds [100 x %struct.stud], [100 x %struct.stud]* %2, i64 0, i64 %54
  %56 = getelementptr inbounds %struct.stud, %struct.stud* %55, i32 0, i32 5
  %57 = load i32, i32* %56, align 4
  %58 = icmp sgt i32 %57, 0
  br i1 %58, label %59, label %68

59:                                               ; preds = %52
  %60 = load i32, i32* %4, align 4
  %61 = sext i32 %60 to i64
  %62 = getelementptr inbounds [100 x i32], [100 x i32]* %5, i64 0, i64 %61
  %63 = load i32, i32* %62, align 4
  %64 = add nsw i32 %63, 8000
  %65 = load i32, i32* %4, align 4
  %66 = sext i32 %65 to i64
  %67 = getelementptr inbounds [100 x i32], [100 x i32]* %5, i64 0, i64 %66
  store i32 %64, i32* %67, align 4
  br label %68

68:                                               ; preds = %59, %52, %15
  %69 = load i32, i32* %4, align 4
  %70 = sext i32 %69 to i64
  %71 = getelementptr inbounds [100 x %struct.stud], [100 x %struct.stud]* %2, i64 0, i64 %70
  %72 = getelementptr inbounds %struct.stud, %struct.stud* %71, i32 0, i32 1
  %73 = load i32, i32* %72, align 16
  %74 = icmp sgt i32 %73, 85
  br i1 %74, label %75, label %91

75:                                               ; preds = %68
  %76 = load i32, i32* %4, align 4
  %77 = sext i32 %76 to i64
  %78 = getelementptr inbounds [100 x %struct.stud], [100 x %struct.stud]* %2, i64 0, i64 %77
  %79 = getelementptr inbounds %struct.stud, %struct.stud* %78, i32 0, i32 2
  %80 = load i32, i32* %79, align 4
  %81 = icmp sgt i32 %80, 80
  br i1 %81, label %82, label %91

82:                                               ; preds = %75
  %83 = load i32, i32* %4, align 4
  %84 = sext i32 %83 to i64
  %85 = getelementptr inbounds [100 x i32], [100 x i32]* %5, i64 0, i64 %84
  %86 = load i32, i32* %85, align 4
  %87 = add nsw i32 %86, 4000
  %88 = load i32, i32* %4, align 4
  %89 = sext i32 %88 to i64
  %90 = getelementptr inbounds [100 x i32], [100 x i32]* %5, i64 0, i64 %89
  store i32 %87, i32* %90, align 4
  br label %91

91:                                               ; preds = %82, %75, %68
  %92 = load i32, i32* %4, align 4
  %93 = sext i32 %92 to i64
  %94 = getelementptr inbounds [100 x %struct.stud], [100 x %struct.stud]* %2, i64 0, i64 %93
  %95 = getelementptr inbounds %struct.stud, %struct.stud* %94, i32 0, i32 1
  %96 = load i32, i32* %95, align 16
  %97 = icmp sgt i32 %96, 90
  br i1 %97, label %98, label %107

98:                                               ; preds = %91
  %99 = load i32, i32* %4, align 4
  %100 = sext i32 %99 to i64
  %101 = getelementptr inbounds [100 x i32], [100 x i32]* %5, i64 0, i64 %100
  %102 = load i32, i32* %101, align 4
  %103 = add nsw i32 %102, 2000
  %104 = load i32, i32* %4, align 4
  %105 = sext i32 %104 to i64
  %106 = getelementptr inbounds [100 x i32], [100 x i32]* %5, i64 0, i64 %105
  store i32 %103, i32* %106, align 4
  br label %107

107:                                              ; preds = %98, %91
  %108 = load i32, i32* %4, align 4
  %109 = sext i32 %108 to i64
  %110 = getelementptr inbounds [100 x %struct.stud], [100 x %struct.stud]* %2, i64 0, i64 %109
  %111 = getelementptr inbounds %struct.stud, %struct.stud* %110, i32 0, i32 1
  %112 = load i32, i32* %111, align 16
  %113 = icmp sgt i32 %112, 85
  br i1 %113, label %114, label %131

114:                                              ; preds = %107
  %115 = load i32, i32* %4, align 4
  %116 = sext i32 %115 to i64
  %117 = getelementptr inbounds [100 x %struct.stud], [100 x %struct.stud]* %2, i64 0, i64 %116
  %118 = getelementptr inbounds %struct.stud, %struct.stud* %117, i32 0, i32 4
  %119 = load i8, i8* %118, align 1
  %120 = sext i8 %119 to i32
  %121 = icmp eq i32 %120, 89
  br i1 %121, label %122, label %131

122:                                              ; preds = %114
  %123 = load i32, i32* %4, align 4
  %124 = sext i32 %123 to i64
  %125 = getelementptr inbounds [100 x i32], [100 x i32]* %5, i64 0, i64 %124
  %126 = load i32, i32* %125, align 4
  %127 = add nsw i32 %126, 1000
  %128 = load i32, i32* %4, align 4
  %129 = sext i32 %128 to i64
  %130 = getelementptr inbounds [100 x i32], [100 x i32]* %5, i64 0, i64 %129
  store i32 %127, i32* %130, align 4
  br label %131

131:                                              ; preds = %122, %114, %107
  %132 = load i32, i32* %4, align 4
  %133 = sext i32 %132 to i64
  %134 = getelementptr inbounds [100 x %struct.stud], [100 x %struct.stud]* %2, i64 0, i64 %133
  %135 = getelementptr inbounds %struct.stud, %struct.stud* %134, i32 0, i32 2
  %136 = load i32, i32* %135, align 4
  %137 = icmp sgt i32 %136, 80
  br i1 %137, label %138, label %155

138:                                              ; preds = %131
  %139 = load i32, i32* %4, align 4
  %140 = sext i32 %139 to i64
  %141 = getelementptr inbounds [100 x %struct.stud], [100 x %struct.stud]* %2, i64 0, i64 %140
  %142 = getelementptr inbounds %struct.stud, %struct.stud* %141, i32 0, i32 3
  %143 = load i8, i8* %142, align 8
  %144 = sext i8 %143 to i32
  %145 = icmp eq i32 %144, 89
  br i1 %145, label %146, label %155

146:                                              ; preds = %138
  %147 = load i32, i32* %4, align 4
  %148 = sext i32 %147 to i64
  %149 = getelementptr inbounds [100 x i32], [100 x i32]* %5, i64 0, i64 %148
  %150 = load i32, i32* %149, align 4
  %151 = add nsw i32 %150, 850
  %152 = load i32, i32* %4, align 4
  %153 = sext i32 %152 to i64
  %154 = getelementptr inbounds [100 x i32], [100 x i32]* %5, i64 0, i64 %153
  store i32 %151, i32* %154, align 4
  br label %155

155:                                              ; preds = %146, %138, %131
  br label %156

156:                                              ; preds = %155
  %157 = load i32, i32* %4, align 4
  %158 = add nsw i32 %157, 1
  store i32 %158, i32* %4, align 4
  br label %11

159:                                              ; preds = %11
  %160 = getelementptr inbounds [100 x i32], [100 x i32]* %5, i64 0, i64 0
  %161 = load i32, i32* %160, align 16
  store i32 %161, i32* %6, align 4
  store i32 0, i32* %4, align 4
  br label %162

162:                                              ; preds = %186, %159
  %163 = load i32, i32* %4, align 4
  %164 = load i32, i32* %3, align 4
  %165 = icmp slt i32 %163, %164
  br i1 %165, label %166, label %189

166:                                              ; preds = %162
  %167 = load i32, i32* %7, align 4
  %168 = load i32, i32* %4, align 4
  %169 = sext i32 %168 to i64
  %170 = getelementptr inbounds [100 x i32], [100 x i32]* %5, i64 0, i64 %169
  %171 = load i32, i32* %170, align 4
  %172 = add nsw i32 %167, %171
  store i32 %172, i32* %7, align 4
  %173 = load i32, i32* %4, align 4
  %174 = sext i32 %173 to i64
  %175 = getelementptr inbounds [100 x i32], [100 x i32]* %5, i64 0, i64 %174
  %176 = load i32, i32* %175, align 4
  %177 = load i32, i32* %6, align 4
  %178 = icmp sgt i32 %176, %177
  br i1 %178, label %179, label %185

179:                                              ; preds = %166
  %180 = load i32, i32* %4, align 4
  %181 = sext i32 %180 to i64
  %182 = getelementptr inbounds [100 x i32], [100 x i32]* %5, i64 0, i64 %181
  %183 = load i32, i32* %182, align 4
  store i32 %183, i32* %6, align 4
  %184 = load i32, i32* %4, align 4
  store i32 %184, i32* %8, align 4
  br label %185

185:                                              ; preds = %179, %166
  br label %186

186:                                              ; preds = %185
  %187 = load i32, i32* %4, align 4
  %188 = add nsw i32 %187, 1
  store i32 %188, i32* %4, align 4
  br label %162

189:                                              ; preds = %162
  %190 = load i32, i32* %8, align 4
  %191 = sext i32 %190 to i64
  %192 = getelementptr inbounds [100 x %struct.stud], [100 x %struct.stud]* %2, i64 0, i64 %191
  %193 = getelementptr inbounds %struct.stud, %struct.stud* %192, i32 0, i32 0
  %194 = getelementptr inbounds [30 x i8], [30 x i8]* %193, i64 0, i64 0
  %195 = load i32, i32* %6, align 4
  %196 = load i32, i32* %7, align 4
  %197 = call i32 (i8*, ...) @printf(i8* getelementptr inbounds ([9 x i8], [9 x i8]* @.str.2, i64 0, i64 0), i8* %194, i32 %195, i32 %196)
  %198 = load i32, i32* %1, align 4
  ret i32 %198
}

declare dso_local i32 @__isoc99_scanf(i8*, ...) #1

declare dso_local i32 @getchar() #1

declare dso_local i32 @printf(i8*, ...) #1


!llvm.module.flags = !{!0}
!llvm.ident = !{!1}

!0 = !{i32 1, !"wchar_size", i32 4}
!1 = !{!"clang version 10.0.0-4ubuntu1 "}
